; ModuleID = 'source-C-CXX/34/2478.c'
source_filename = "source-C-CXX/34/2478.c"
target datalayout = "e-m:e-p270:32:32-p271:32:32-p272:64:64-i64:64-f80:128-n8:16:32:64-S128"
target triple = "x86_64-pc-linux-gnu"

@.str = private unnamed_addr constant [6 x i8] c"%d,%d\00", align 1
@.str.1 = private unnamed_addr constant [3 x i8] c"%d\00", align 1
@.str.2 = private unnamed_addr constant [6 x i8] c"%d+%d\00", align 1
@.str.3 = private unnamed_addr constant [3 x i8] c"No\00", align 1

; Function Attrs: nofree nounwind sspstrong uwtable
define dso_local i32 @main() local_unnamed_addr #0 {
  %1 = alloca i32, align 4
  %2 = alloca i32, align 4
  %3 = alloca [8 x [8 x i32]], align 16
  %4 = bitcast i32* %1 to i8*
  call void @llvm.lifetime.start.p0i8(i64 4, i8* nonnull %4) #4
  %5 = bitcast i32* %2 to i8*
  call void @llvm.lifetime.start.p0i8(i64 4, i8* nonnull %5) #4
  %6 = bitcast [8 x [8 x i32]]* %3 to i8*
  call void @llvm.lifetime.start.p0i8(i64 256, i8* nonnull %6) #4
  %7 = call i32 (i8*, ...) @__isoc99_scanf(i8* getelementptr inbounds ([6 x i8], [6 x i8]* @.str, i64 0, i64 0), i32* nonnull %1, i32* nonnull %2)
  %8 = load i32, i32* %1, align 4, !tbaa !5
  %9 = icmp sgt i32 %8, 0
  %10 = load i32, i32* %2, align 4
  %11 = icmp sgt i32 %10, 0
  %12 = select i1 %9, i1 %11, i1 false
  br i1 %12, label %13, label %189

13:                                               ; preds = %0, %179
  %14 = phi i32 [ %180, %179 ], [ %8, %0 ]
  %15 = phi i32 [ %181, %179 ], [ %10, %0 ]
  %16 = phi i64 [ %182, %179 ], [ 0, %0 ]
  %17 = icmp sgt i32 %15, 0
  br i1 %17, label %169, label %179

18:                                               ; preds = %179
  %19 = icmp sgt i32 %180, 0
  %20 = icmp sgt i32 %181, 0
  %21 = select i1 %19, i1 %20, i1 false
  br i1 %21, label %22, label %189

22:                                               ; preds = %18
  %23 = zext i32 %180 to i64
  %24 = zext i32 %181 to i64
  %25 = and i64 %24, 4294967288
  %26 = add nsw i64 %25, -8
  %27 = lshr exact i64 %26, 3
  %28 = add nuw nsw i64 %27, 1
  %29 = add nsw i64 %23, -1
  %30 = icmp ult i32 %181, 8
  %31 = and i64 %24, 4294967288
  %32 = and i64 %28, 1
  %33 = icmp eq i64 %26, 0
  %34 = and i64 %28, 4611686018427387902
  %35 = icmp eq i64 %32, 0
  %36 = icmp eq i64 %31, %24
  %37 = and i64 %23, 3
  %38 = icmp ult i64 %29, 3
  %39 = and i64 %23, 4294967292
  %40 = icmp eq i64 %37, 0
  br label %41

41:                                               ; preds = %166, %22
  %42 = phi i64 [ 0, %22 ], [ %167, %166 ]
  %43 = phi i32 [ 0, %22 ], [ %112, %166 ]
  br i1 %30, label %99, label %44

44:                                               ; preds = %41
  %45 = insertelement <4 x i32> poison, i32 %43, i32 0
  %46 = shufflevector <4 x i32> %45, <4 x i32> poison, <4 x i32> zeroinitializer
  br i1 %33, label %76, label %47

47:                                               ; preds = %44, %47
  %48 = phi i64 [ %73, %47 ], [ 0, %44 ]
  %49 = phi <4 x i32> [ %71, %47 ], [ %46, %44 ]
  %50 = phi <4 x i32> [ %72, %47 ], [ %46, %44 ]
  %51 = phi i64 [ %74, %47 ], [ %34, %44 ]
  %52 = getelementptr inbounds [8 x [8 x i32]], [8 x [8 x i32]]* %3, i64 0, i64 %42, i64 %48
  %53 = bitcast i32* %52 to <4 x i32>*
  %54 = load <4 x i32>, <4 x i32>* %53, align 16, !tbaa !5
  %55 = getelementptr inbounds i32, i32* %52, i64 4
  %56 = bitcast i32* %55 to <4 x i32>*
  %57 = load <4 x i32>, <4 x i32>* %56, align 16, !tbaa !5
  %58 = icmp sgt <4 x i32> %54, %49
  %59 = icmp sgt <4 x i32> %57, %50
  %60 = select <4 x i1> %58, <4 x i32> %54, <4 x i32> %49
  %61 = select <4 x i1> %59, <4 x i32> %57, <4 x i32> %50
  %62 = or i64 %48, 8
  %63 = getelementptr inbounds [8 x [8 x i32]], [8 x [8 x i32]]* %3, i64 0, i64 %42, i64 %62
  %64 = bitcast i32* %63 to <4 x i32>*
  %65 = load <4 x i32>, <4 x i32>* %64, align 16, !tbaa !5
  %66 = getelementptr inbounds i32, i32* %63, i64 4
  %67 = bitcast i32* %66 to <4 x i32>*
  %68 = load <4 x i32>, <4 x i32>* %67, align 16, !tbaa !5
  %69 = icmp sgt <4 x i32> %65, %60
  %70 = icmp sgt <4 x i32> %68, %61
  %71 = select <4 x i1> %69, <4 x i32> %65, <4 x i32> %60
  %72 = select <4 x i1> %70, <4 x i32> %68, <4 x i32> %61
  %73 = add nuw i64 %48, 16
  %74 = add i64 %51, -2
  %75 = icmp eq i64 %74, 0
  br i1 %75, label %76, label %47, !llvm.loop !9

76:                                               ; preds = %47, %44
  %77 = phi <4 x i32> [ undef, %44 ], [ %71, %47 ]
  %78 = phi <4 x i32> [ undef, %44 ], [ %72, %47 ]
  %79 = phi i64 [ 0, %44 ], [ %73, %47 ]
  %80 = phi <4 x i32> [ %46, %44 ], [ %71, %47 ]
  %81 = phi <4 x i32> [ %46, %44 ], [ %72, %47 ]
  br i1 %35, label %93, label %82

82:                                               ; preds = %76
  %83 = getelementptr inbounds [8 x [8 x i32]], [8 x [8 x i32]]* %3, i64 0, i64 %42, i64 %79
  %84 = bitcast i32* %83 to <4 x i32>*
  %85 = load <4 x i32>, <4 x i32>* %84, align 16, !tbaa !5
  %86 = getelementptr inbounds i32, i32* %83, i64 4
  %87 = bitcast i32* %86 to <4 x i32>*
  %88 = load <4 x i32>, <4 x i32>* %87, align 16, !tbaa !5
  %89 = icmp sgt <4 x i32> %88, %81
  %90 = select <4 x i1> %89, <4 x i32> %88, <4 x i32> %81
  %91 = icmp sgt <4 x i32> %85, %80
  %92 = select <4 x i1> %91, <4 x i32> %85, <4 x i32> %80
  br label %93

93:                                               ; preds = %76, %82
  %94 = phi <4 x i32> [ %77, %76 ], [ %92, %82 ]
  %95 = phi <4 x i32> [ %78, %76 ], [ %90, %82 ]
  %96 = icmp sgt <4 x i32> %94, %95
  %97 = select <4 x i1> %96, <4 x i32> %94, <4 x i32> %95
  %98 = call i32 @llvm.vector.reduce.smax.v4i32(<4 x i32> %97)
  br i1 %36, label %111, label %99

99:                                               ; preds = %41, %93
  %100 = phi i64 [ 0, %41 ], [ %31, %93 ]
  %101 = phi i32 [ %43, %41 ], [ %98, %93 ]
  br label %102

102:                                              ; preds = %99, %102
  %103 = phi i64 [ %109, %102 ], [ %100, %99 ]
  %104 = phi i32 [ %108, %102 ], [ %101, %99 ]
  %105 = getelementptr inbounds [8 x [8 x i32]], [8 x [8 x i32]]* %3, i64 0, i64 %42, i64 %103
  %106 = load i32, i32* %105, align 4, !tbaa !5
  %107 = icmp sgt i32 %106, %104
  %108 = select i1 %107, i32 %106, i32 %104
  %109 = add nuw nsw i64 %103, 1
  %110 = icmp eq i64 %109, %24
  br i1 %110, label %111, label %102, !llvm.loop !12

111:                                              ; preds = %102, %93
  %112 = phi i32 [ %98, %93 ], [ %108, %102 ]
  br label %113

113:                                              ; preds = %119, %111
  %114 = phi i64 [ %120, %119 ], [ 0, %111 ]
  %115 = getelementptr inbounds [8 x [8 x i32]], [8 x [8 x i32]]* %3, i64 0, i64 %42, i64 %114
  %116 = load i32, i32* %115, align 4, !tbaa !5
  %117 = icmp eq i32 %116, %112
  br i1 %117, label %118, label %119

118:                                              ; preds = %113
  br i1 %38, label %148, label %122

119:                                              ; preds = %163, %113
  %120 = add nuw nsw i64 %114, 1
  %121 = icmp eq i64 %120, %24
  br i1 %121, label %166, label %113, !llvm.loop !14

122:                                              ; preds = %118, %122
  %123 = phi i64 [ %145, %122 ], [ 0, %118 ]
  %124 = phi i32 [ %144, %122 ], [ %112, %118 ]
  %125 = phi i64 [ %146, %122 ], [ %39, %118 ]
  %126 = getelementptr inbounds [8 x [8 x i32]], [8 x [8 x i32]]* %3, i64 0, i64 %123, i64 %114
  %127 = load i32, i32* %126, align 4, !tbaa !5
  %128 = icmp slt i32 %127, %124
  %129 = select i1 %128, i32 %127, i32 %124
  %130 = or i64 %123, 1
  %131 = getelementptr inbounds [8 x [8 x i32]], [8 x [8 x i32]]* %3, i64 0, i64 %130, i64 %114
  %132 = load i32, i32* %131, align 4, !tbaa !5
  %133 = icmp slt i32 %132, %129
  %134 = select i1 %133, i32 %132, i32 %129
  %135 = or i64 %123, 2
  %136 = getelementptr inbounds [8 x [8 x i32]], [8 x [8 x i32]]* %3, i64 0, i64 %135, i64 %114
  %137 = load i32, i32* %136, align 4, !tbaa !5
  %138 = icmp slt i32 %137, %134
  %139 = select i1 %138, i32 %137, i32 %134
  %140 = or i64 %123, 3
  %141 = getelementptr inbounds [8 x [8 x i32]], [8 x [8 x i32]]* %3, i64 0, i64 %140, i64 %114
  %142 = load i32, i32* %141, align 4, !tbaa !5
  %143 = icmp slt i32 %142, %139
  %144 = select i1 %143, i32 %142, i32 %139
  %145 = add nuw nsw i64 %123, 4
  %146 = add i64 %125, -4
  %147 = icmp eq i64 %146, 0
  br i1 %147, label %148, label %122, !llvm.loop !15

148:                                              ; preds = %122, %118
  %149 = phi i32 [ undef, %118 ], [ %144, %122 ]
  %150 = phi i64 [ 0, %118 ], [ %145, %122 ]
  %151 = phi i32 [ %112, %118 ], [ %144, %122 ]
  br i1 %40, label %163, label %152

152:                                              ; preds = %148, %152
  %153 = phi i64 [ %160, %152 ], [ %150, %148 ]
  %154 = phi i32 [ %159, %152 ], [ %151, %148 ]
  %155 = phi i64 [ %161, %152 ], [ %37, %148 ]
  %156 = getelementptr inbounds [8 x [8 x i32]], [8 x [8 x i32]]* %3, i64 0, i64 %153, i64 %114
  %157 = load i32, i32* %156, align 4, !tbaa !5
  %158 = icmp slt i32 %157, %154
  %159 = select i1 %158, i32 %157, i32 %154
  %160 = add nuw nsw i64 %153, 1
  %161 = add i64 %155, -1
  %162 = icmp eq i64 %161, 0
  br i1 %162, label %163, label %152, !llvm.loop !16

163:                                              ; preds = %152, %148
  %164 = phi i32 [ %149, %148 ], [ %159, %152 ]
  %165 = icmp eq i32 %112, %164
  br i1 %165, label %185, label %119

166:                                              ; preds = %119
  %167 = add nuw nsw i64 %42, 1
  %168 = icmp eq i64 %167, %23
  br i1 %168, label %189, label %41, !llvm.loop !18

169:                                              ; preds = %13, %169
  %170 = phi i64 [ %173, %169 ], [ 0, %13 ]
  %171 = getelementptr inbounds [8 x [8 x i32]], [8 x [8 x i32]]* %3, i64 0, i64 %16, i64 %170
  %172 = call i32 (i8*, ...) @__isoc99_scanf(i8* getelementptr inbounds ([3 x i8], [3 x i8]* @.str.1, i64 0, i64 0), i32* nonnull %171)
  %173 = add nuw nsw i64 %170, 1
  %174 = load i32, i32* %2, align 4, !tbaa !5
  %175 = sext i32 %174 to i64
  %176 = icmp slt i64 %173, %175
  br i1 %176, label %169, label %177, !llvm.loop !19

177:                                              ; preds = %169
  %178 = load i32, i32* %1, align 4, !tbaa !5
  br label %179

179:                                              ; preds = %177, %13
  %180 = phi i32 [ %178, %177 ], [ %14, %13 ]
  %181 = phi i32 [ %174, %177 ], [ %15, %13 ]
  %182 = add nuw nsw i64 %16, 1
  %183 = sext i32 %180 to i64
  %184 = icmp slt i64 %182, %183
  br i1 %184, label %13, label %18, !llvm.loop !20

185:                                              ; preds = %163
  %186 = trunc i64 %42 to i32
  %187 = trunc i64 %114 to i32
  %188 = call i32 (i8*, ...) @printf(i8* nonnull dereferenceable(1) getelementptr inbounds ([6 x i8], [6 x i8]* @.str.2, i64 0, i64 0), i32 %186, i32 %187)
  br label %191

189:                                              ; preds = %166, %0, %18
  %190 = call i32 (i8*, ...) @printf(i8* nonnull dereferenceable(1) getelementptr inbounds ([3 x i8], [3 x i8]* @.str.3, i64 0, i64 0))
  br label %191

191:                                              ; preds = %189, %185
  call void @llvm.lifetime.end.p0i8(i64 256, i8* nonnull %6) #4
  call void @llvm.lifetime.end.p0i8(i64 4, i8* nonnull %5) #4
  call void @llvm.lifetime.end.p0i8(i64 4, i8* nonnull %4) #4
  ret i32 0
}

; Function Attrs: argmemonly mustprogress nofree nosync nounwind willreturn
declare void @llvm.lifetime.start.p0i8(i64 immarg, i8* nocapture) #1

; Function Attrs: nofree nounwind
declare noundef i32 @__isoc99_scanf(i8* nocapture noundef readonly, ...) local_unnamed_addr #2

; Function Attrs: nofree nounwind
declare noundef i32 @printf(i8* nocapture noundef readonly, ...) local_unnamed_addr #2

; Function Attrs: argmemonly mustprogress nofree nosync nounwind willreturn
declare void @llvm.lifetime.end.p0i8(i64 immarg, i8* nocapture) #1

; Function Attrs: nofree nosync nounwind readnone willreturn
declare i32 @llvm.vector.reduce.smax.v4i32(<4 x i32>) #3


!llvm.module.flags = !{!0, !1, !2, !3}
!llvm.ident = !{!4}

!0 = !{i32 1, !"wchar_size", i32 4}
!1 = !{i32 7, !"PIC Level", i32 2}
!2 = !{i32 7, !"PIE Level", i32 2}
!3 = !{i32 7, !"uwtable", i32 1}
!4 = !{!"clang version 13.0.0"}
!5 = !{!6, !6, i64 0}
!6 = !{!"int", !7, i64 0}
!7 = !{!"omnipotent char", !8, i64 0}
!8 = !{!"Simple C/C++ TBAA"}
!9 = distinct !{!9, !10, !11}
!10 = !{!"llvm.loop.mustprogress"}
!11 = !{!"llvm.loop.isvectorized", i32 1}
!12 = distinct !{!12, !10, !13, !11}
!13 = !{!"llvm.loop.unroll.runtime.disable"}
!14 = distinct !{!14, !10}
!15 = distinct !{!15, !10}
!16 = distinct !{!16, !17}
!17 = !{!"llvm.loop.unroll.disable"}
!18 = distinct !{!18, !10}
!19 = distinct !{!19, !10}
!20 = distinct !{!20, !10, !21}
!21 = !{!"llvm.loop.unswitch.partial.disable"}
